; Function Attrs: nounwind uwtable
define internal range(i32 0, 2) i32 @Scl_CommandWriteScl(ptr noundef readonly captures(none) %0, i32 noundef %1, ptr noundef %2) #0 {
  tail call void (...) @Extra_UtilGetoptReset() #12
  %4 = tail call i32 @Extra_UtilGetopt(i32 noundef %1, ptr noundef %2, ptr noundef nonnull @.str.53) #12
  %.not = icmp eq i32 %4, -1
  br i1 %.not, label %5, label %29

5:                                                ; preds = %3
  %6 = load i32, ptr @globalUtilOptind, align 4, !tbaa !81
  %7 = add nsw i32 %6, 1
  %.not17 = icmp eq i32 %1, %7
  br i1 %.not17, label %8, label %29

8:                                                ; preds = %5
  %9 = getelementptr inbounds nuw i8, ptr %0, i64 240
  %10 = load ptr, ptr %9, align 8, !tbaa !85
  %11 = icmp eq ptr %10, null
  br i1 %11, label %12, label %16

12:                                               ; preds = %8
  %13 = getelementptr inbounds nuw i8, ptr %0, i64 136
  %14 = load ptr, ptr %13, align 8, !tbaa !84
  %15 = tail call i64 @fwrite(ptr nonnull @.str.54, i64 39, i64 1, ptr %14)
  br label %39

16:                                               ; preds = %8
  %17 = sext i32 %6 to i64
  %18 = getelementptr inbounds ptr, ptr %2, i64 %17
  %19 = load ptr, ptr %18, align 8, !tbaa !82
  %20 = tail call noalias ptr @fopen(ptr noundef %19, ptr noundef nonnull @.str.55)
  %21 = icmp eq ptr %20, null
  br i1 %21, label %22, label %26

22:                                               ; preds = %16
  %23 = getelementptr inbounds nuw i8, ptr %0, i64 136
  %24 = load ptr, ptr %23, align 8, !tbaa !84
  %25 = tail call i32 (ptr, ptr, ...) @fprintf(ptr noundef %24, ptr noundef nonnull @.str.56, ptr noundef %19) #12
  br label %39

26:                                               ; preds = %16
  %27 = tail call i32 @fclose(ptr noundef nonnull %20)
  %28 = load ptr, ptr %9, align 8, !tbaa !85
  tail call void @Abc_SclWriteScl(ptr noundef %19, ptr noundef %28) #12
  br label %39

29:                                               ; preds = %5, %3
  %30 = getelementptr inbounds nuw i8, ptr %0, i64 136
  %31 = load ptr, ptr %30, align 8, !tbaa !84
  %32 = tail call i64 @fwrite(ptr nonnull @.str.81, i64 29, i64 1, ptr %31)
  %33 = load ptr, ptr %30, align 8, !tbaa !84
  %34 = tail call i64 @fwrite(ptr nonnull @.str.82, i64 52, i64 1, ptr %33)
  %35 = load ptr, ptr %30, align 8, !tbaa !84
  %36 = tail call i64 @fwrite(ptr nonnull @.str.59, i64 33, i64 1, ptr %35)
  %37 = load ptr, ptr %30, align 8, !tbaa !84
  %38 = tail call i64 @fwrite(ptr nonnull @.str.60, i64 40, i64 1, ptr %37)
  br label %39

39:                                               ; preds = %29, %26, %22, %12
  %.0 = phi i32 [ 1, %29 ], [ 1, %12 ], [ 1, %22 ], [ 0, %26 ]
  ret i32 %.0
}